(dp0
S'vanishing_points'
p1
(lp2
(F3327.370288044047
F24.00784829055605
tp3
a(F28.475246204950523
F-201.94688791296232
tp4
asS'reference_top'
p5
(cnumpy.core.multiarray
scalar
p6
(cnumpy
dtype
p7
(S'f8'
p8
I0
I1
tp9
Rp10
(I3
S'<'
p11
NNNI-1
I-1
I0
tp12
bS'\x06\xad?-o\x15c@'
p13
tp14
Rp15
g6
(g10
S'@\xf4\xa8\xdf$\x9a-@'
p16
tp17
Rp18
tp19
sS'reference_bottom'
p20
(g6
(g10
S'\xe4\xe3\x03\xe1\xc9\xaef@'
p21
tp22
Rp23
g6
(g10
S'\x0e\xa7\xf2Hf-s@'
p24
tp25
Rp26
tp27
s.